; Function Attrs: nounwind sspstrong uwtable
define dso_local void @tcg_gen_negsetcondi_i32(i32 noundef %0, ptr noundef %1, ptr noundef %2, i32 noundef %3) local_unnamed_addr #2 {
  %5 = tail call ptr @tcg_constant_i32(i32 noundef %3) #6
  switch i32 %0, label %30 [
    i32 1, label %6
    i32 0, label %18
  ]

6:                                                ; preds = %4
  %7 = tail call ptr @tcg_constant_i32(i32 noundef -1) #6
  %.not.i.i.i = icmp eq ptr %1, %7
  br i1 %.not.i.i.i, label %tcg_gen_negsetcond_i32.exit, label %8

8:                                                ; preds = %6
  %9 = tail call align 8 ptr @llvm.threadlocal.address.p0(ptr align 8 @tcg_ctx)
  %10 = load ptr, ptr %9, align 8
  %11 = ptrtoint ptr %1 to i64
  %12 = getelementptr inbounds nuw i8, ptr %10, i64 %11
  %13 = ptrtoint ptr %12 to i64
  %14 = ptrtoint ptr %7 to i64
  %15 = getelementptr inbounds nuw i8, ptr %10, i64 %14
  %16 = ptrtoint ptr %15 to i64
  %17 = tail call ptr @tcg_gen_op2(i32 noundef 5, i32 noundef 0, i64 noundef %13, i64 noundef %16)
  br label %tcg_gen_negsetcond_i32.exit

18:                                               ; preds = %4
  %19 = tail call ptr @tcg_constant_i32(i32 noundef 0) #6
  %.not.i.i7.i = icmp eq ptr %1, %19
  br i1 %.not.i.i7.i, label %tcg_gen_negsetcond_i32.exit, label %20

20:                                               ; preds = %18
  %21 = tail call align 8 ptr @llvm.threadlocal.address.p0(ptr align 8 @tcg_ctx)
  %22 = load ptr, ptr %21, align 8
  %23 = ptrtoint ptr %1 to i64
  %24 = getelementptr inbounds nuw i8, ptr %22, i64 %23
  %25 = ptrtoint ptr %24 to i64
  %26 = ptrtoint ptr %19 to i64
  %27 = getelementptr inbounds nuw i8, ptr %22, i64 %26
  %28 = ptrtoint ptr %27 to i64
  %29 = tail call ptr @tcg_gen_op2(i32 noundef 5, i32 noundef 0, i64 noundef %25, i64 noundef %28)
  br label %tcg_gen_negsetcond_i32.exit

30:                                               ; preds = %4
  %31 = zext i32 %0 to i64
  %32 = tail call align 8 ptr @llvm.threadlocal.address.p0(ptr align 8 @tcg_ctx)
  %33 = load ptr, ptr %32, align 8
  %34 = ptrtoint ptr %1 to i64
  %35 = getelementptr inbounds nuw i8, ptr %33, i64 %34
  %36 = ptrtoint ptr %35 to i64
  %37 = ptrtoint ptr %2 to i64
  %38 = getelementptr inbounds nuw i8, ptr %33, i64 %37
  %39 = ptrtoint ptr %38 to i64
  %40 = ptrtoint ptr %5 to i64
  %41 = getelementptr inbounds nuw i8, ptr %33, i64 %40
  %42 = ptrtoint ptr %41 to i64
  %43 = tail call ptr @tcg_gen_op4(i32 noundef 7, i32 noundef 0, i64 noundef %36, i64 noundef %39, i64 noundef %42, i64 noundef range(i64 1, 4294967296) %31)
  br label %tcg_gen_negsetcond_i32.exit

tcg_gen_negsetcond_i32.exit:                      ; preds = %6, %8, %18, %20, %30
  ret void
}